ARM GAS  C:\Users\User\AppData\Local\Temp\ccFwGiUb.s 			page 1


   1              		.cpu cortex-m4
   2              		.arch armv7e-m
   3              		.fpu fpv4-sp-d16
   4              		.eabi_attribute 27, 1
   5              		.eabi_attribute 28, 1
   6              		.eabi_attribute 20, 1
   7              		.eabi_attribute 21, 1
   8              		.eabi_attribute 23, 3
   9              		.eabi_attribute 24, 1
  10              		.eabi_attribute 25, 1
  11              		.eabi_attribute 26, 1
  12              		.eabi_attribute 30, 1
  13              		.eabi_attribute 34, 1
  14              		.eabi_attribute 18, 4
  15              		.file	"stm32f4xx_hal_msp.c"
  16              		.text
  17              	.Ltext0:
  18              		.cfi_sections	.debug_frame
  19              		.file 1 "Core/Src/stm32f4xx_hal_msp.c"
  20              		.section	.text.HAL_MspInit,"ax",%progbits
  21              		.align	1
  22              		.global	HAL_MspInit
  23              		.syntax unified
  24              		.thumb
  25              		.thumb_func
  27              	HAL_MspInit:
  28              	.LFB134:
   1:Core/Src/stm32f4xx_hal_msp.c **** /* USER CODE BEGIN Header */
   2:Core/Src/stm32f4xx_hal_msp.c **** /**
   3:Core/Src/stm32f4xx_hal_msp.c ****   ******************************************************************************
   4:Core/Src/stm32f4xx_hal_msp.c ****   * @file         stm32f4xx_hal_msp.c
   5:Core/Src/stm32f4xx_hal_msp.c ****   * @brief        This file provides code for the MSP Initialization
   6:Core/Src/stm32f4xx_hal_msp.c ****   *               and de-Initialization codes.
   7:Core/Src/stm32f4xx_hal_msp.c ****   ******************************************************************************
   8:Core/Src/stm32f4xx_hal_msp.c ****   * @attention
   9:Core/Src/stm32f4xx_hal_msp.c ****   *
  10:Core/Src/stm32f4xx_hal_msp.c ****   * Copyright (c) 2025 STMicroelectronics.
  11:Core/Src/stm32f4xx_hal_msp.c ****   * All rights reserved.
  12:Core/Src/stm32f4xx_hal_msp.c ****   *
  13:Core/Src/stm32f4xx_hal_msp.c ****   * This software is licensed under terms that can be found in the LICENSE file
  14:Core/Src/stm32f4xx_hal_msp.c ****   * in the root directory of this software component.
  15:Core/Src/stm32f4xx_hal_msp.c ****   * If no LICENSE file comes with this software, it is provided AS-IS.
  16:Core/Src/stm32f4xx_hal_msp.c ****   *
  17:Core/Src/stm32f4xx_hal_msp.c ****   ******************************************************************************
  18:Core/Src/stm32f4xx_hal_msp.c ****   */
  19:Core/Src/stm32f4xx_hal_msp.c **** /* USER CODE END Header */
  20:Core/Src/stm32f4xx_hal_msp.c **** 
  21:Core/Src/stm32f4xx_hal_msp.c **** /* Includes ------------------------------------------------------------------*/
  22:Core/Src/stm32f4xx_hal_msp.c **** #include "main.h"
  23:Core/Src/stm32f4xx_hal_msp.c **** /* USER CODE BEGIN Includes */
  24:Core/Src/stm32f4xx_hal_msp.c **** 
  25:Core/Src/stm32f4xx_hal_msp.c **** /* USER CODE END Includes */
  26:Core/Src/stm32f4xx_hal_msp.c **** 
  27:Core/Src/stm32f4xx_hal_msp.c **** /* Private typedef -----------------------------------------------------------*/
  28:Core/Src/stm32f4xx_hal_msp.c **** /* USER CODE BEGIN TD */
  29:Core/Src/stm32f4xx_hal_msp.c **** 
  30:Core/Src/stm32f4xx_hal_msp.c **** /* USER CODE END TD */
ARM GAS  C:\Users\User\AppData\Local\Temp\ccFwGiUb.s 			page 2


  31:Core/Src/stm32f4xx_hal_msp.c **** 
  32:Core/Src/stm32f4xx_hal_msp.c **** /* Private define ------------------------------------------------------------*/
  33:Core/Src/stm32f4xx_hal_msp.c **** /* USER CODE BEGIN Define */
  34:Core/Src/stm32f4xx_hal_msp.c **** 
  35:Core/Src/stm32f4xx_hal_msp.c **** /* USER CODE END Define */
  36:Core/Src/stm32f4xx_hal_msp.c **** 
  37:Core/Src/stm32f4xx_hal_msp.c **** /* Private macro -------------------------------------------------------------*/
  38:Core/Src/stm32f4xx_hal_msp.c **** /* USER CODE BEGIN Macro */
  39:Core/Src/stm32f4xx_hal_msp.c **** 
  40:Core/Src/stm32f4xx_hal_msp.c **** /* USER CODE END Macro */
  41:Core/Src/stm32f4xx_hal_msp.c **** 
  42:Core/Src/stm32f4xx_hal_msp.c **** /* Private variables ---------------------------------------------------------*/
  43:Core/Src/stm32f4xx_hal_msp.c **** /* USER CODE BEGIN PV */
  44:Core/Src/stm32f4xx_hal_msp.c **** 
  45:Core/Src/stm32f4xx_hal_msp.c **** /* USER CODE END PV */
  46:Core/Src/stm32f4xx_hal_msp.c **** 
  47:Core/Src/stm32f4xx_hal_msp.c **** /* Private function prototypes -----------------------------------------------*/
  48:Core/Src/stm32f4xx_hal_msp.c **** /* USER CODE BEGIN PFP */
  49:Core/Src/stm32f4xx_hal_msp.c **** 
  50:Core/Src/stm32f4xx_hal_msp.c **** /* USER CODE END PFP */
  51:Core/Src/stm32f4xx_hal_msp.c **** 
  52:Core/Src/stm32f4xx_hal_msp.c **** /* External functions --------------------------------------------------------*/
  53:Core/Src/stm32f4xx_hal_msp.c **** /* USER CODE BEGIN ExternalFunctions */
  54:Core/Src/stm32f4xx_hal_msp.c **** 
  55:Core/Src/stm32f4xx_hal_msp.c **** /* USER CODE END ExternalFunctions */
  56:Core/Src/stm32f4xx_hal_msp.c **** 
  57:Core/Src/stm32f4xx_hal_msp.c **** /* USER CODE BEGIN 0 */
  58:Core/Src/stm32f4xx_hal_msp.c **** 
  59:Core/Src/stm32f4xx_hal_msp.c **** /* USER CODE END 0 */
  60:Core/Src/stm32f4xx_hal_msp.c **** 
  61:Core/Src/stm32f4xx_hal_msp.c **** void HAL_TIM_MspPostInit(TIM_HandleTypeDef *htim);
  62:Core/Src/stm32f4xx_hal_msp.c ****                     /**
  63:Core/Src/stm32f4xx_hal_msp.c ****   * Initializes the Global MSP.
  64:Core/Src/stm32f4xx_hal_msp.c ****   */
  65:Core/Src/stm32f4xx_hal_msp.c **** void HAL_MspInit(void)
  66:Core/Src/stm32f4xx_hal_msp.c **** {
  29              		.loc 1 66 1 view -0
  30              		.cfi_startproc
  31              		@ args = 0, pretend = 0, frame = 8
  32              		@ frame_needed = 0, uses_anonymous_args = 0
  33 0000 00B5     		push	{lr}
  34              	.LCFI0:
  35              		.cfi_def_cfa_offset 4
  36              		.cfi_offset 14, -4
  37 0002 83B0     		sub	sp, sp, #12
  38              	.LCFI1:
  39              		.cfi_def_cfa_offset 16
  67:Core/Src/stm32f4xx_hal_msp.c **** 
  68:Core/Src/stm32f4xx_hal_msp.c ****   /* USER CODE BEGIN MspInit 0 */
  69:Core/Src/stm32f4xx_hal_msp.c **** 
  70:Core/Src/stm32f4xx_hal_msp.c ****   /* USER CODE END MspInit 0 */
  71:Core/Src/stm32f4xx_hal_msp.c **** 
  72:Core/Src/stm32f4xx_hal_msp.c ****   __HAL_RCC_SYSCFG_CLK_ENABLE();
  40              		.loc 1 72 3 view .LVU1
  41              	.LBB2:
  42              		.loc 1 72 3 view .LVU2
  43 0004 0021     		movs	r1, #0
ARM GAS  C:\Users\User\AppData\Local\Temp\ccFwGiUb.s 			page 3


  44 0006 0091     		str	r1, [sp]
  45              		.loc 1 72 3 view .LVU3
  46 0008 0C4B     		ldr	r3, .L3
  47 000a 5A6C     		ldr	r2, [r3, #68]
  48 000c 42F48042 		orr	r2, r2, #16384
  49 0010 5A64     		str	r2, [r3, #68]
  50              		.loc 1 72 3 view .LVU4
  51 0012 5A6C     		ldr	r2, [r3, #68]
  52 0014 02F48042 		and	r2, r2, #16384
  53 0018 0092     		str	r2, [sp]
  54              		.loc 1 72 3 view .LVU5
  55 001a 009A     		ldr	r2, [sp]
  56              	.LBE2:
  57              		.loc 1 72 3 view .LVU6
  73:Core/Src/stm32f4xx_hal_msp.c ****   __HAL_RCC_PWR_CLK_ENABLE();
  58              		.loc 1 73 3 view .LVU7
  59              	.LBB3:
  60              		.loc 1 73 3 view .LVU8
  61 001c 0191     		str	r1, [sp, #4]
  62              		.loc 1 73 3 view .LVU9
  63 001e 1A6C     		ldr	r2, [r3, #64]
  64 0020 42F08052 		orr	r2, r2, #268435456
  65 0024 1A64     		str	r2, [r3, #64]
  66              		.loc 1 73 3 view .LVU10
  67 0026 1B6C     		ldr	r3, [r3, #64]
  68 0028 03F08053 		and	r3, r3, #268435456
  69 002c 0193     		str	r3, [sp, #4]
  70              		.loc 1 73 3 view .LVU11
  71 002e 019B     		ldr	r3, [sp, #4]
  72              	.LBE3:
  73              		.loc 1 73 3 view .LVU12
  74:Core/Src/stm32f4xx_hal_msp.c **** 
  75:Core/Src/stm32f4xx_hal_msp.c ****   HAL_NVIC_SetPriorityGrouping(NVIC_PRIORITYGROUP_0);
  74              		.loc 1 75 3 view .LVU13
  75 0030 0720     		movs	r0, #7
  76 0032 FFF7FEFF 		bl	HAL_NVIC_SetPriorityGrouping
  77              	.LVL0:
  76:Core/Src/stm32f4xx_hal_msp.c **** 
  77:Core/Src/stm32f4xx_hal_msp.c ****   /* System interrupt init*/
  78:Core/Src/stm32f4xx_hal_msp.c **** 
  79:Core/Src/stm32f4xx_hal_msp.c ****   /* USER CODE BEGIN MspInit 1 */
  80:Core/Src/stm32f4xx_hal_msp.c **** 
  81:Core/Src/stm32f4xx_hal_msp.c ****   /* USER CODE END MspInit 1 */
  82:Core/Src/stm32f4xx_hal_msp.c **** }
  78              		.loc 1 82 1 is_stmt 0 view .LVU14
  79 0036 03B0     		add	sp, sp, #12
  80              	.LCFI2:
  81              		.cfi_def_cfa_offset 4
  82              		@ sp needed
  83 0038 5DF804FB 		ldr	pc, [sp], #4
  84              	.L4:
  85              		.align	2
  86              	.L3:
  87 003c 00380240 		.word	1073887232
  88              		.cfi_endproc
  89              	.LFE134:
  91              		.section	.text.HAL_TIM_PWM_MspInit,"ax",%progbits
ARM GAS  C:\Users\User\AppData\Local\Temp\ccFwGiUb.s 			page 4


  92              		.align	1
  93              		.global	HAL_TIM_PWM_MspInit
  94              		.syntax unified
  95              		.thumb
  96              		.thumb_func
  98              	HAL_TIM_PWM_MspInit:
  99              	.LVL1:
 100              	.LFB135:
  83:Core/Src/stm32f4xx_hal_msp.c **** 
  84:Core/Src/stm32f4xx_hal_msp.c **** /**
  85:Core/Src/stm32f4xx_hal_msp.c ****   * @brief TIM_PWM MSP Initialization
  86:Core/Src/stm32f4xx_hal_msp.c ****   * This function configures the hardware resources used in this example
  87:Core/Src/stm32f4xx_hal_msp.c ****   * @param htim_pwm: TIM_PWM handle pointer
  88:Core/Src/stm32f4xx_hal_msp.c ****   * @retval None
  89:Core/Src/stm32f4xx_hal_msp.c ****   */
  90:Core/Src/stm32f4xx_hal_msp.c **** void HAL_TIM_PWM_MspInit(TIM_HandleTypeDef* htim_pwm)
  91:Core/Src/stm32f4xx_hal_msp.c **** {
 101              		.loc 1 91 1 is_stmt 1 view -0
 102              		.cfi_startproc
 103              		@ args = 0, pretend = 0, frame = 8
 104              		@ frame_needed = 0, uses_anonymous_args = 0
 105              		@ link register save eliminated.
  92:Core/Src/stm32f4xx_hal_msp.c ****   if(htim_pwm->Instance==TIM1)
 106              		.loc 1 92 3 view .LVU16
 107              		.loc 1 92 14 is_stmt 0 view .LVU17
 108 0000 0268     		ldr	r2, [r0]
 109              		.loc 1 92 5 view .LVU18
 110 0002 094B     		ldr	r3, .L12
 111 0004 9A42     		cmp	r2, r3
 112 0006 00D0     		beq	.L11
 113 0008 7047     		bx	lr
 114              	.L11:
  91:Core/Src/stm32f4xx_hal_msp.c ****   if(htim_pwm->Instance==TIM1)
 115              		.loc 1 91 1 view .LVU19
 116 000a 82B0     		sub	sp, sp, #8
 117              	.LCFI3:
 118              		.cfi_def_cfa_offset 8
  93:Core/Src/stm32f4xx_hal_msp.c ****   {
  94:Core/Src/stm32f4xx_hal_msp.c ****     /* USER CODE BEGIN TIM1_MspInit 0 */
  95:Core/Src/stm32f4xx_hal_msp.c **** 
  96:Core/Src/stm32f4xx_hal_msp.c ****     /* USER CODE END TIM1_MspInit 0 */
  97:Core/Src/stm32f4xx_hal_msp.c ****     /* Peripheral clock enable */
  98:Core/Src/stm32f4xx_hal_msp.c ****     __HAL_RCC_TIM1_CLK_ENABLE();
 119              		.loc 1 98 5 is_stmt 1 view .LVU20
 120              	.LBB4:
 121              		.loc 1 98 5 view .LVU21
 122 000c 0023     		movs	r3, #0
 123 000e 0193     		str	r3, [sp, #4]
 124              		.loc 1 98 5 view .LVU22
 125 0010 064B     		ldr	r3, .L12+4
 126 0012 5A6C     		ldr	r2, [r3, #68]
 127 0014 42F00102 		orr	r2, r2, #1
 128 0018 5A64     		str	r2, [r3, #68]
 129              		.loc 1 98 5 view .LVU23
 130 001a 5B6C     		ldr	r3, [r3, #68]
 131 001c 03F00103 		and	r3, r3, #1
 132 0020 0193     		str	r3, [sp, #4]
ARM GAS  C:\Users\User\AppData\Local\Temp\ccFwGiUb.s 			page 5


 133              		.loc 1 98 5 view .LVU24
 134 0022 019B     		ldr	r3, [sp, #4]
 135              	.LBE4:
 136              		.loc 1 98 5 discriminator 1 view .LVU25
  99:Core/Src/stm32f4xx_hal_msp.c ****     /* USER CODE BEGIN TIM1_MspInit 1 */
 100:Core/Src/stm32f4xx_hal_msp.c **** 
 101:Core/Src/stm32f4xx_hal_msp.c ****     /* USER CODE END TIM1_MspInit 1 */
 102:Core/Src/stm32f4xx_hal_msp.c **** 
 103:Core/Src/stm32f4xx_hal_msp.c ****   }
 104:Core/Src/stm32f4xx_hal_msp.c **** 
 105:Core/Src/stm32f4xx_hal_msp.c **** }
 137              		.loc 1 105 1 is_stmt 0 view .LVU26
 138 0024 02B0     		add	sp, sp, #8
 139              	.LCFI4:
 140              		.cfi_def_cfa_offset 0
 141              		@ sp needed
 142 0026 7047     		bx	lr
 143              	.L13:
 144              		.align	2
 145              	.L12:
 146 0028 00000140 		.word	1073807360
 147 002c 00380240 		.word	1073887232
 148              		.cfi_endproc
 149              	.LFE135:
 151              		.section	.text.HAL_TIM_MspPostInit,"ax",%progbits
 152              		.align	1
 153              		.global	HAL_TIM_MspPostInit
 154              		.syntax unified
 155              		.thumb
 156              		.thumb_func
 158              	HAL_TIM_MspPostInit:
 159              	.LVL2:
 160              	.LFB136:
 106:Core/Src/stm32f4xx_hal_msp.c **** 
 107:Core/Src/stm32f4xx_hal_msp.c **** void HAL_TIM_MspPostInit(TIM_HandleTypeDef* htim)
 108:Core/Src/stm32f4xx_hal_msp.c **** {
 161              		.loc 1 108 1 is_stmt 1 view -0
 162              		.cfi_startproc
 163              		@ args = 0, pretend = 0, frame = 24
 164              		@ frame_needed = 0, uses_anonymous_args = 0
 165              		.loc 1 108 1 is_stmt 0 view .LVU28
 166 0000 00B5     		push	{lr}
 167              	.LCFI5:
 168              		.cfi_def_cfa_offset 4
 169              		.cfi_offset 14, -4
 170 0002 87B0     		sub	sp, sp, #28
 171              	.LCFI6:
 172              		.cfi_def_cfa_offset 32
 109:Core/Src/stm32f4xx_hal_msp.c ****   GPIO_InitTypeDef GPIO_InitStruct = {0};
 173              		.loc 1 109 3 is_stmt 1 view .LVU29
 174              		.loc 1 109 20 is_stmt 0 view .LVU30
 175 0004 0023     		movs	r3, #0
 176 0006 0193     		str	r3, [sp, #4]
 177 0008 0293     		str	r3, [sp, #8]
 178 000a 0393     		str	r3, [sp, #12]
 179 000c 0493     		str	r3, [sp, #16]
 180 000e 0593     		str	r3, [sp, #20]
ARM GAS  C:\Users\User\AppData\Local\Temp\ccFwGiUb.s 			page 6


 110:Core/Src/stm32f4xx_hal_msp.c ****   if(htim->Instance==TIM1)
 181              		.loc 1 110 3 is_stmt 1 view .LVU31
 182              		.loc 1 110 10 is_stmt 0 view .LVU32
 183 0010 0268     		ldr	r2, [r0]
 184              		.loc 1 110 5 view .LVU33
 185 0012 0F4B     		ldr	r3, .L18
 186 0014 9A42     		cmp	r2, r3
 187 0016 02D0     		beq	.L17
 188              	.LVL3:
 189              	.L14:
 111:Core/Src/stm32f4xx_hal_msp.c ****   {
 112:Core/Src/stm32f4xx_hal_msp.c ****     /* USER CODE BEGIN TIM1_MspPostInit 0 */
 113:Core/Src/stm32f4xx_hal_msp.c **** 
 114:Core/Src/stm32f4xx_hal_msp.c ****     /* USER CODE END TIM1_MspPostInit 0 */
 115:Core/Src/stm32f4xx_hal_msp.c **** 
 116:Core/Src/stm32f4xx_hal_msp.c ****     __HAL_RCC_GPIOA_CLK_ENABLE();
 117:Core/Src/stm32f4xx_hal_msp.c ****     /**TIM1 GPIO Configuration
 118:Core/Src/stm32f4xx_hal_msp.c ****     PA8     ------> TIM1_CH1
 119:Core/Src/stm32f4xx_hal_msp.c ****     */
 120:Core/Src/stm32f4xx_hal_msp.c ****     GPIO_InitStruct.Pin = GPIO_PIN_8;
 121:Core/Src/stm32f4xx_hal_msp.c ****     GPIO_InitStruct.Mode = GPIO_MODE_AF_PP;
 122:Core/Src/stm32f4xx_hal_msp.c ****     GPIO_InitStruct.Pull = GPIO_NOPULL;
 123:Core/Src/stm32f4xx_hal_msp.c ****     GPIO_InitStruct.Speed = GPIO_SPEED_FREQ_LOW;
 124:Core/Src/stm32f4xx_hal_msp.c ****     GPIO_InitStruct.Alternate = GPIO_AF1_TIM1;
 125:Core/Src/stm32f4xx_hal_msp.c ****     HAL_GPIO_Init(GPIOA, &GPIO_InitStruct);
 126:Core/Src/stm32f4xx_hal_msp.c **** 
 127:Core/Src/stm32f4xx_hal_msp.c ****     /* USER CODE BEGIN TIM1_MspPostInit 1 */
 128:Core/Src/stm32f4xx_hal_msp.c **** 
 129:Core/Src/stm32f4xx_hal_msp.c ****     /* USER CODE END TIM1_MspPostInit 1 */
 130:Core/Src/stm32f4xx_hal_msp.c ****   }
 131:Core/Src/stm32f4xx_hal_msp.c **** 
 132:Core/Src/stm32f4xx_hal_msp.c **** }
 190              		.loc 1 132 1 view .LVU34
 191 0018 07B0     		add	sp, sp, #28
 192              	.LCFI7:
 193              		.cfi_remember_state
 194              		.cfi_def_cfa_offset 4
 195              		@ sp needed
 196 001a 5DF804FB 		ldr	pc, [sp], #4
 197              	.LVL4:
 198              	.L17:
 199              	.LCFI8:
 200              		.cfi_restore_state
 116:Core/Src/stm32f4xx_hal_msp.c ****     /**TIM1 GPIO Configuration
 201              		.loc 1 116 5 is_stmt 1 view .LVU35
 202              	.LBB5:
 116:Core/Src/stm32f4xx_hal_msp.c ****     /**TIM1 GPIO Configuration
 203              		.loc 1 116 5 view .LVU36
 204 001e 0023     		movs	r3, #0
 205 0020 0093     		str	r3, [sp]
 116:Core/Src/stm32f4xx_hal_msp.c ****     /**TIM1 GPIO Configuration
 206              		.loc 1 116 5 view .LVU37
 207 0022 0C4B     		ldr	r3, .L18+4
 208 0024 1A6B     		ldr	r2, [r3, #48]
 209 0026 42F00102 		orr	r2, r2, #1
 210 002a 1A63     		str	r2, [r3, #48]
 116:Core/Src/stm32f4xx_hal_msp.c ****     /**TIM1 GPIO Configuration
ARM GAS  C:\Users\User\AppData\Local\Temp\ccFwGiUb.s 			page 7


 211              		.loc 1 116 5 view .LVU38
 212 002c 1B6B     		ldr	r3, [r3, #48]
 213 002e 03F00103 		and	r3, r3, #1
 214 0032 0093     		str	r3, [sp]
 116:Core/Src/stm32f4xx_hal_msp.c ****     /**TIM1 GPIO Configuration
 215              		.loc 1 116 5 view .LVU39
 216 0034 009B     		ldr	r3, [sp]
 217              	.LBE5:
 116:Core/Src/stm32f4xx_hal_msp.c ****     /**TIM1 GPIO Configuration
 218              		.loc 1 116 5 view .LVU40
 120:Core/Src/stm32f4xx_hal_msp.c ****     GPIO_InitStruct.Mode = GPIO_MODE_AF_PP;
 219              		.loc 1 120 5 view .LVU41
 120:Core/Src/stm32f4xx_hal_msp.c ****     GPIO_InitStruct.Mode = GPIO_MODE_AF_PP;
 220              		.loc 1 120 25 is_stmt 0 view .LVU42
 221 0036 4FF48073 		mov	r3, #256
 222 003a 0193     		str	r3, [sp, #4]
 121:Core/Src/stm32f4xx_hal_msp.c ****     GPIO_InitStruct.Pull = GPIO_NOPULL;
 223              		.loc 1 121 5 is_stmt 1 view .LVU43
 121:Core/Src/stm32f4xx_hal_msp.c ****     GPIO_InitStruct.Pull = GPIO_NOPULL;
 224              		.loc 1 121 26 is_stmt 0 view .LVU44
 225 003c 0223     		movs	r3, #2
 226 003e 0293     		str	r3, [sp, #8]
 122:Core/Src/stm32f4xx_hal_msp.c ****     GPIO_InitStruct.Speed = GPIO_SPEED_FREQ_LOW;
 227              		.loc 1 122 5 is_stmt 1 view .LVU45
 123:Core/Src/stm32f4xx_hal_msp.c ****     GPIO_InitStruct.Alternate = GPIO_AF1_TIM1;
 228              		.loc 1 123 5 view .LVU46
 124:Core/Src/stm32f4xx_hal_msp.c ****     HAL_GPIO_Init(GPIOA, &GPIO_InitStruct);
 229              		.loc 1 124 5 view .LVU47
 124:Core/Src/stm32f4xx_hal_msp.c ****     HAL_GPIO_Init(GPIOA, &GPIO_InitStruct);
 230              		.loc 1 124 31 is_stmt 0 view .LVU48
 231 0040 0123     		movs	r3, #1
 232 0042 0593     		str	r3, [sp, #20]
 125:Core/Src/stm32f4xx_hal_msp.c **** 
 233              		.loc 1 125 5 is_stmt 1 view .LVU49
 234 0044 01A9     		add	r1, sp, #4
 235 0046 0448     		ldr	r0, .L18+8
 236              	.LVL5:
 125:Core/Src/stm32f4xx_hal_msp.c **** 
 237              		.loc 1 125 5 is_stmt 0 view .LVU50
 238 0048 FFF7FEFF 		bl	HAL_GPIO_Init
 239              	.LVL6:
 240              		.loc 1 132 1 view .LVU51
 241 004c E4E7     		b	.L14
 242              	.L19:
 243 004e 00BF     		.align	2
 244              	.L18:
 245 0050 00000140 		.word	1073807360
 246 0054 00380240 		.word	1073887232
 247 0058 00000240 		.word	1073872896
 248              		.cfi_endproc
 249              	.LFE136:
 251              		.section	.text.HAL_TIM_PWM_MspDeInit,"ax",%progbits
 252              		.align	1
 253              		.global	HAL_TIM_PWM_MspDeInit
 254              		.syntax unified
 255              		.thumb
 256              		.thumb_func
ARM GAS  C:\Users\User\AppData\Local\Temp\ccFwGiUb.s 			page 8


 258              	HAL_TIM_PWM_MspDeInit:
 259              	.LVL7:
 260              	.LFB137:
 133:Core/Src/stm32f4xx_hal_msp.c **** /**
 134:Core/Src/stm32f4xx_hal_msp.c ****   * @brief TIM_PWM MSP De-Initialization
 135:Core/Src/stm32f4xx_hal_msp.c ****   * This function freeze the hardware resources used in this example
 136:Core/Src/stm32f4xx_hal_msp.c ****   * @param htim_pwm: TIM_PWM handle pointer
 137:Core/Src/stm32f4xx_hal_msp.c ****   * @retval None
 138:Core/Src/stm32f4xx_hal_msp.c ****   */
 139:Core/Src/stm32f4xx_hal_msp.c **** void HAL_TIM_PWM_MspDeInit(TIM_HandleTypeDef* htim_pwm)
 140:Core/Src/stm32f4xx_hal_msp.c **** {
 261              		.loc 1 140 1 is_stmt 1 view -0
 262              		.cfi_startproc
 263              		@ args = 0, pretend = 0, frame = 0
 264              		@ frame_needed = 0, uses_anonymous_args = 0
 265              		@ link register save eliminated.
 141:Core/Src/stm32f4xx_hal_msp.c ****   if(htim_pwm->Instance==TIM1)
 266              		.loc 1 141 3 view .LVU53
 267              		.loc 1 141 14 is_stmt 0 view .LVU54
 268 0000 0268     		ldr	r2, [r0]
 269              		.loc 1 141 5 view .LVU55
 270 0002 054B     		ldr	r3, .L23
 271 0004 9A42     		cmp	r2, r3
 272 0006 00D0     		beq	.L22
 273              	.L20:
 142:Core/Src/stm32f4xx_hal_msp.c ****   {
 143:Core/Src/stm32f4xx_hal_msp.c ****     /* USER CODE BEGIN TIM1_MspDeInit 0 */
 144:Core/Src/stm32f4xx_hal_msp.c **** 
 145:Core/Src/stm32f4xx_hal_msp.c ****     /* USER CODE END TIM1_MspDeInit 0 */
 146:Core/Src/stm32f4xx_hal_msp.c ****     /* Peripheral clock disable */
 147:Core/Src/stm32f4xx_hal_msp.c ****     __HAL_RCC_TIM1_CLK_DISABLE();
 148:Core/Src/stm32f4xx_hal_msp.c ****     /* USER CODE BEGIN TIM1_MspDeInit 1 */
 149:Core/Src/stm32f4xx_hal_msp.c **** 
 150:Core/Src/stm32f4xx_hal_msp.c ****     /* USER CODE END TIM1_MspDeInit 1 */
 151:Core/Src/stm32f4xx_hal_msp.c ****   }
 152:Core/Src/stm32f4xx_hal_msp.c **** 
 153:Core/Src/stm32f4xx_hal_msp.c **** }
 274              		.loc 1 153 1 view .LVU56
 275 0008 7047     		bx	lr
 276              	.L22:
 147:Core/Src/stm32f4xx_hal_msp.c ****     /* USER CODE BEGIN TIM1_MspDeInit 1 */
 277              		.loc 1 147 5 is_stmt 1 view .LVU57
 278 000a 044A     		ldr	r2, .L23+4
 279 000c 536C     		ldr	r3, [r2, #68]
 280 000e 23F00103 		bic	r3, r3, #1
 281 0012 5364     		str	r3, [r2, #68]
 282              		.loc 1 153 1 is_stmt 0 view .LVU58
 283 0014 F8E7     		b	.L20
 284              	.L24:
 285 0016 00BF     		.align	2
 286              	.L23:
 287 0018 00000140 		.word	1073807360
 288 001c 00380240 		.word	1073887232
 289              		.cfi_endproc
 290              	.LFE137:
 292              		.text
 293              	.Letext0:
ARM GAS  C:\Users\User\AppData\Local\Temp\ccFwGiUb.s 			page 9


 294              		.file 2 "C:\\ST\\STM32CubeCLT_1.19.0\\GNU-tools-for-STM32\\bin\\../lib/gcc/arm-none-eabi/13.3.1/..
 295              		.file 3 "C:\\ST\\STM32CubeCLT_1.19.0\\GNU-tools-for-STM32\\bin\\../lib/gcc/arm-none-eabi/13.3.1/..
 296              		.file 4 "Drivers/CMSIS/Device/ST/STM32F4xx/Include/stm32f401xe.h"
 297              		.file 5 "Drivers/STM32F4xx_HAL_Driver/Inc/stm32f4xx_hal_def.h"
 298              		.file 6 "Drivers/STM32F4xx_HAL_Driver/Inc/stm32f4xx_hal_gpio.h"
 299              		.file 7 "Drivers/STM32F4xx_HAL_Driver/Inc/stm32f4xx_hal_dma.h"
 300              		.file 8 "Drivers/STM32F4xx_HAL_Driver/Inc/stm32f4xx_hal_tim.h"
 301              		.file 9 "Drivers/STM32F4xx_HAL_Driver/Inc/stm32f4xx_hal_cortex.h"
ARM GAS  C:\Users\User\AppData\Local\Temp\ccFwGiUb.s 			page 10

